target datalayout = "e-m:e-p270:32:32-p271:32:32-p272:64:64-i64:64-i128:128-f80:128-n8:16:32:64-S128"
target triple = "x86_64-pc-linux-gnu"

%"struct.icu_77::FormattedStringBuilder::Field" = type { i8 }
%"class.icu_77::RelativeDateTimeCacheData" = type { %"class.icu_77::SharedObject", [3 x [15 x [6 x %"class.icu_77::UnicodeString"]]], [3 x [15 x [2 x [8 x ptr]]]], %"class.icu_77::UnicodeString", [3 x i32], ptr }
%"class.icu_77::SharedObject" = type { %"class.icu_77::UObject", i32, %"struct.std::atomic", ptr }
%"class.icu_77::UObject" = type { ptr }
%"struct.std::atomic" = type { %"struct.std::__atomic_base" }
%"struct.std::__atomic_base" = type { i32 }
%"class.icu_77::UnicodeString" = type { %"class.icu_77::Replaceable", %"union.icu_77::UnicodeString::StackBufferOrFields" }
%"class.icu_77::Replaceable" = type { %"class.icu_77::UObject" }
%"union.icu_77::UnicodeString::StackBufferOrFields" = type { %struct.anon.0, [32 x i8] }
%struct.anon.0 = type { i16, i32, i32, ptr }
%"class.icu_77::Locale" = type <{ %"class.icu_77::UObject", [12 x i8], [6 x i8], [4 x i8], [2 x i8], i32, [4 x i8], ptr, [157 x i8], [3 x i8], ptr, i8, [7 x i8] }>
%"class.icu_77::FormattedValue" = type { ptr }
%"class.icu_77::RelativeDateTimeFormatter" = type { %"class.icu_77::UObject", ptr, ptr, ptr, i32, i32, ptr, %"class.icu_77::Locale" }
%"class.icu_77::FormattedStringBuilder" = type { i8, %"union.icu_77::FormattedStringBuilder::ValueOrHeapArray", %"union.icu_77::FormattedStringBuilder::ValueOrHeapArray.3", i32, i32 }
%"union.icu_77::FormattedStringBuilder::ValueOrHeapArray" = type { %struct.anon.2, [64 x i8] }
%struct.anon.2 = type { ptr, i32 }
%"union.icu_77::FormattedStringBuilder::ValueOrHeapArray.3" = type { %struct.anon.4, [24 x i8] }
%struct.anon.4 = type { ptr, i32 }
%"class.icu_77::MaybeStackArray.5" = type { ptr, i32, i8, [8 x %"struct.icu_77::SpanInfo"] }
%"struct.icu_77::SpanInfo" = type { i32, i32, i32, i32 }
%"class.icu_77::FormattedValueStringBuilderImpl" = type <{ %"class.icu_77::FormattedValue", %"class.icu_77::FormattedStringBuilder", %"struct.icu_77::FormattedStringBuilder::Field", [7 x i8], %"class.icu_77::MaybeStackArray.5", i32, [4 x i8] }>

@_ZN6icu_77L16kRDTLiteralFieldE = internal constant %"struct.icu_77::FormattedStringBuilder::Field" { i8 64 }, align 1

; Function Attrs: inlinehint mustprogress nounwind uwtable
define linkonce_odr noundef signext i8 @_ZNK6icu_7713UnicodeString7isEmptyEv(ptr noundef nonnull align 8 dereferenceable(64) %0) #2 comdat align 2 {
  %2 = alloca ptr, align 8
  store ptr %0, ptr %2, align 8, !tbaa !47
  %3 = load ptr, ptr %2, align 8
  %4 = getelementptr inbounds nuw %"class.icu_77::UnicodeString", ptr %3, i32 0, i32 1
  %5 = getelementptr inbounds nuw %struct.anon.0, ptr %4, i32 0, i32 0
  %6 = load i16, ptr %5, align 8, !tbaa !49
  %7 = sext i16 %6 to i32
  %8 = ashr i32 %7, 5
  %9 = icmp eq i32 %8, 0
  %10 = zext i1 %9 to i8
  ret i8 %10
}

; Function Attrs: inlinehint mustprogress uwtable
define linkonce_odr noundef i32 @_ZN6icu_7722FormattedStringBuilder6appendERKNS_13UnicodeStringENS0_5FieldER10UErrorCode(ptr noundef nonnull align 8 dereferenceable(136) %0, ptr noundef nonnull align 8 dereferenceable(64) %1, i8 %2, ptr noundef nonnull align 4 dereferenceable(4) %3) #3 comdat align 2 {
  %5 = alloca %"struct.icu_77::FormattedStringBuilder::Field", align 1
  %6 = alloca ptr, align 8
  %7 = alloca ptr, align 8
  %8 = alloca ptr, align 8
  %9 = alloca %"struct.icu_77::FormattedStringBuilder::Field", align 1
  %10 = getelementptr inbounds nuw %"struct.icu_77::FormattedStringBuilder::Field", ptr %5, i32 0, i32 0
  store i8 %2, ptr %10, align 1
  store ptr %0, ptr %6, align 8, !tbaa !143
  store ptr %1, ptr %7, align 8, !tbaa !47
  store ptr %3, ptr %8, align 8, !tbaa !22
  %11 = load ptr, ptr %6, align 8
  %12 = getelementptr inbounds nuw %"class.icu_77::FormattedStringBuilder", ptr %11, i32 0, i32 4
  %13 = load i32, ptr %12, align 4, !tbaa !145
  %14 = load ptr, ptr %7, align 8, !tbaa !47
  call void @llvm.memcpy.p0.p0.i64(ptr align 1 %9, ptr align 1 %5, i64 1, i1 false), !tbaa.struct !135
  %15 = load ptr, ptr %8, align 8, !tbaa !22
  %16 = getelementptr inbounds nuw %"struct.icu_77::FormattedStringBuilder::Field", ptr %9, i32 0, i32 0
  %17 = load i8, ptr %16, align 1
  %18 = call noundef i32 @_ZN6icu_7722FormattedStringBuilder6insertEiRKNS_13UnicodeStringENS0_5FieldER10UErrorCode(ptr noundef nonnull align 8 dereferenceable(136) %11, i32 noundef %13, ptr noundef nonnull align 8 dereferenceable(64) %14, i8 %17, ptr noundef nonnull align 4 dereferenceable(4) %15)
  ret i32 %18
}

; Function Attrs: mustprogress uwtable
define noundef nonnull align 8 dereferenceable(64) ptr @_ZNK6icu_7725RelativeDateTimeCacheData21getAbsoluteUnitStringEi17UDateAbsoluteUnit14UDateDirection(ptr noundef nonnull align 8 dereferenceable(23152) %0, i32 noundef %1, i32 noundef %2, i32 noundef %3) #1 align 2 {
  %5 = alloca ptr, align 8
  %6 = alloca ptr, align 8
  %7 = alloca i32, align 4
  %8 = alloca i32, align 4
  %9 = alloca i32, align 4
  %10 = alloca i32, align 4
  %11 = alloca i32, align 4
  store ptr %0, ptr %6, align 8, !tbaa !23
  store i32 %1, ptr %7, align 4, !tbaa !14
  store i32 %2, ptr %8, align 4, !tbaa !42
  store i32 %3, ptr %9, align 4, !tbaa !44
  %12 = load ptr, ptr %6, align 8
  call void @llvm.lifetime.start.p0(i64 4, ptr %10) #12
  %13 = load i32, ptr %7, align 4, !tbaa !14
  store i32 %13, ptr %10, align 4, !tbaa !14
  br label %14

14:                                               ; preds = %44, %4
  %15 = getelementptr inbounds nuw %"class.icu_77::RelativeDateTimeCacheData", ptr %12, i32 0, i32 1
  %16 = load i32, ptr %10, align 4, !tbaa !14
  %17 = sext i32 %16 to i64
  %18 = getelementptr inbounds [3 x [15 x [6 x %"class.icu_77::UnicodeString"]]], ptr %15, i64 0, i64 %17
  %19 = load i32, ptr %8, align 4, !tbaa !42
  %20 = zext i32 %19 to i64
  %21 = getelementptr inbounds nuw [15 x [6 x %"class.icu_77::UnicodeString"]], ptr %18, i64 0, i64 %20
  %22 = load i32, ptr %9, align 4, !tbaa !44
  %23 = zext i32 %22 to i64
  %24 = getelementptr inbounds nuw [6 x %"class.icu_77::UnicodeString"], ptr %21, i64 0, i64 %23
  %25 = call noundef signext i8 @_ZNK6icu_7713UnicodeString7isEmptyEv(ptr noundef nonnull align 8 dereferenceable(64) %24)
  %26 = icmp ne i8 %25, 0
  br i1 %26, label %38, label %27

27:                                               ; preds = %14
  %28 = getelementptr inbounds nuw %"class.icu_77::RelativeDateTimeCacheData", ptr %12, i32 0, i32 1
  %29 = load i32, ptr %10, align 4, !tbaa !14
  %30 = sext i32 %29 to i64
  %31 = getelementptr inbounds [3 x [15 x [6 x %"class.icu_77::UnicodeString"]]], ptr %28, i64 0, i64 %30
  %32 = load i32, ptr %8, align 4, !tbaa !42
  %33 = zext i32 %32 to i64
  %34 = getelementptr inbounds nuw [15 x [6 x %"class.icu_77::UnicodeString"]], ptr %31, i64 0, i64 %33
  %35 = load i32, ptr %9, align 4, !tbaa !44
  %36 = zext i32 %35 to i64
  %37 = getelementptr inbounds nuw [6 x %"class.icu_77::UnicodeString"], ptr %34, i64 0, i64 %36
  store ptr %37, ptr %5, align 8
  store i32 1, ptr %11, align 4
  br label %49

38:                                               ; preds = %14
  %39 = getelementptr inbounds nuw %"class.icu_77::RelativeDateTimeCacheData", ptr %12, i32 0, i32 4
  %40 = load i32, ptr %10, align 4, !tbaa !14
  %41 = sext i32 %40 to i64
  %42 = getelementptr inbounds [3 x i32], ptr %39, i64 0, i64 %41
  %43 = load i32, ptr %42, align 4, !tbaa !14
  store i32 %43, ptr %10, align 4, !tbaa !14
  br label %44

44:                                               ; preds = %38
  %45 = load i32, ptr %10, align 4, !tbaa !14
  %46 = icmp ne i32 %45, -1
  br i1 %46, label %14, label %47, !llvm.loop !46

47:                                               ; preds = %44
  %48 = getelementptr inbounds nuw %"class.icu_77::RelativeDateTimeCacheData", ptr %12, i32 0, i32 3
  store ptr %48, ptr %5, align 8
  store i32 1, ptr %11, align 4
  br label %49

49:                                               ; preds = %47, %27
  call void @llvm.lifetime.end.p0(i64 4, ptr %10) #12
  %50 = load ptr, ptr %5, align 8
  ret ptr %50
}

; Function Attrs: inlinehint mustprogress nounwind uwtable
define linkonce_odr noundef nonnull align 8 dereferenceable(136) ptr @_ZN6icu_7731FormattedValueStringBuilderImpl12getStringRefEv(ptr noundef nonnull align 8 dereferenceable(300) %0) #2 comdat align 2 {
  %2 = alloca ptr, align 8
  store ptr %0, ptr %2, align 8, !tbaa !139
  %3 = load ptr, ptr %2, align 8
  %4 = getelementptr inbounds nuw %"class.icu_77::FormattedValueStringBuilderImpl", ptr %3, i32 0, i32 1
  ret ptr %4
}

; Function Attrs: inlinehint mustprogress nounwind uwtable
define internal noundef signext i8 @_ZL9U_FAILURE10UErrorCode(i32 noundef %0) #2 {
  %2 = alloca i32, align 4
  store i32 %0, ptr %2, align 4, !tbaa !15
  %3 = load i32, ptr %2, align 4, !tbaa !15
  %4 = icmp sgt i32 %3, 0
  %5 = zext i1 %4 to i8
  ret i8 %5
}

; Function Attrs: mustprogress uwtable
define void @_ZNK6icu_7725RelativeDateTimeFormatter18formatAbsoluteImplE14UDateDirection17UDateAbsoluteUnitRNS_29FormattedRelativeDateTimeDataER10UErrorCode(ptr noundef nonnull align 8 dereferenceable(272) %0, i32 noundef %1, i32 noundef %2, ptr noundef nonnull align 8 dereferenceable(300) %3, ptr noundef nonnull align 4 dereferenceable(4) %4) #1 align 2 {
  %6 = alloca ptr, align 8
  %7 = alloca i32, align 4
  %8 = alloca i32, align 4
  %9 = alloca ptr, align 8
  %10 = alloca ptr, align 8
  %11 = alloca %"struct.icu_77::FormattedStringBuilder::Field", align 1
  store ptr %0, ptr %6, align 8, !tbaa !94
  store i32 %1, ptr %7, align 4, !tbaa !44
  store i32 %2, ptr %8, align 4, !tbaa !42
  store ptr %3, ptr %9, align 8, !tbaa !80
  store ptr %4, ptr %10, align 8, !tbaa !22
  %12 = load ptr, ptr %6, align 8
  %13 = load ptr, ptr %10, align 8, !tbaa !22
  %14 = load i32, ptr %13, align 4, !tbaa !15
  %15 = call noundef signext i8 @_ZL9U_FAILURE10UErrorCode(i32 noundef %14)
  %16 = icmp ne i8 %15, 0
  br i1 %16, label %17, label %18

17:                                               ; preds = %5
  br label %52

18:                                               ; preds = %5
  %19 = load i32, ptr %8, align 4, !tbaa !42
  %20 = icmp slt i32 %19, 0
  br i1 %20, label %36, label %21

21:                                               ; preds = %18
  %22 = load i32, ptr %8, align 4, !tbaa !42
  %23 = icmp sle i32 15, %22
  br i1 %23, label %36, label %24

24:                                               ; preds = %21
  %25 = load i32, ptr %7, align 4, !tbaa !44
  %26 = icmp slt i32 %25, 0
  br i1 %26, label %36, label %27

27:                                               ; preds = %24
  %28 = load i32, ptr %7, align 4, !tbaa !44
  %29 = icmp sle i32 6, %28
  br i1 %29, label %36, label %30

30:                                               ; preds = %27
  %31 = load i32, ptr %8, align 4, !tbaa !42
  %32 = icmp eq i32 %31, 11
  br i1 %32, label %33, label %38

33:                                               ; preds = %30
  %34 = load i32, ptr %7, align 4, !tbaa !44
  %35 = icmp ne i32 %34, 5
  br i1 %35, label %36, label %38

36:                                               ; preds = %33, %27, %24, %21, %18
  %37 = load ptr, ptr %10, align 8, !tbaa !22
  store i32 1, ptr %37, align 4, !tbaa !15
  br label %52

38:                                               ; preds = %33, %30
  %39 = load ptr, ptr %9, align 8, !tbaa !80
  %40 = call noundef nonnull align 8 dereferenceable(136) ptr @_ZN6icu_7731FormattedValueStringBuilderImpl12getStringRefEv(ptr noundef nonnull align 8 dereferenceable(300) %39)
  %41 = getelementptr inbounds nuw %"class.icu_77::RelativeDateTimeFormatter", ptr %12, i32 0, i32 1
  %42 = load ptr, ptr %41, align 8, !tbaa !96
  %43 = getelementptr inbounds nuw %"class.icu_77::RelativeDateTimeFormatter", ptr %12, i32 0, i32 4
  %44 = load i32, ptr %43, align 8, !tbaa !105
  %45 = load i32, ptr %8, align 4, !tbaa !42
  %46 = load i32, ptr %7, align 4, !tbaa !44
  %47 = call noundef nonnull align 8 dereferenceable(64) ptr @_ZNK6icu_7725RelativeDateTimeCacheData21getAbsoluteUnitStringEi17UDateAbsoluteUnit14UDateDirection(ptr noundef nonnull align 8 dereferenceable(23152) %42, i32 noundef %44, i32 noundef %45, i32 noundef %46)
  call void @llvm.memcpy.p0.p0.i64(ptr align 1 %11, ptr align 1 @_ZN6icu_77L16kRDTLiteralFieldE, i64 1, i1 false), !tbaa.struct !135
  %48 = load ptr, ptr %10, align 8, !tbaa !22
  %49 = getelementptr inbounds nuw %"struct.icu_77::FormattedStringBuilder::Field", ptr %11, i32 0, i32 0
  %50 = load i8, ptr %49, align 1
  %51 = call noundef i32 @_ZN6icu_7722FormattedStringBuilder6appendERKNS_13UnicodeStringENS0_5FieldER10UErrorCode(ptr noundef nonnull align 8 dereferenceable(136) %40, ptr noundef nonnull align 8 dereferenceable(64) %47, i8 %50, ptr noundef nonnull align 4 dereferenceable(4) %48)
  br label %52

52:                                               ; preds = %38, %36, %17
  ret void
}