; Function Attrs: mustprogress uwtable
define void @_ZNK6icu_7725RelativeDateTimeFormatter18formatAbsoluteImplE14UDateDirection17UDateAbsoluteUnitRNS_29FormattedRelativeDateTimeDataER10UErrorCode(ptr noundef nonnull readonly align 8 captures(none) dereferenceable(272) %0, i32 noundef %1, i32 noundef %2, ptr noundef nonnull align 8 dereferenceable(300) %3, ptr noundef nonnull align 4 dereferenceable(4) %4) #1 align 2 {
  %6 = load i32, ptr %4, align 4, !tbaa !13
  %7 = icmp slt i32 %6, 1
  br i1 %7, label %8, label %38

8:                                                ; preds = %5
  %or.cond = icmp ugt i32 %2, 14
  %9 = icmp ugt i32 %1, 5
  %or.cond5 = or i1 %9, %or.cond
  br i1 %or.cond5, label %13, label %10

10:                                               ; preds = %8
  %11 = icmp eq i32 %2, 11
  %12 = icmp ne i32 %1, 5
  %or.cond7 = and i1 %12, %11
  br i1 %or.cond7, label %13, label %14

13:                                               ; preds = %10, %8
  store i32 1, ptr %4, align 4, !tbaa !13
  br label %38

14:                                               ; preds = %10
  %15 = getelementptr inbounds nuw i8, ptr %3, i64 8
  %16 = getelementptr inbounds nuw i8, ptr %0, i64 8
  %17 = load ptr, ptr %16, align 8, !tbaa !87
  %18 = getelementptr inbounds nuw i8, ptr %0, i64 32
  %19 = load i32, ptr %18, align 8, !tbaa !86
  %20 = getelementptr inbounds nuw i8, ptr %17, i64 24
  %21 = zext nneg i32 %2 to i64
  %22 = zext nneg i32 %1 to i64
  %23 = getelementptr inbounds nuw i8, ptr %17, i64 23128
  br label %24

24:                                               ; preds = %30, %14
  %.0.i = phi i32 [ %19, %14 ], [ %32, %30 ]
  %25 = sext i32 %.0.i to i64
  %26 = getelementptr inbounds [3 x [15 x [6 x %"class.icu_77::UnicodeString"]]], ptr %20, i64 0, i64 %25, i64 %21, i64 %22
  %27 = getelementptr inbounds nuw i8, ptr %26, i64 8
  %28 = load i16, ptr %27, align 8, !tbaa !32
  %29 = icmp ugt i16 %28, 31
  br i1 %29, label %_ZNK6icu_7725RelativeDateTimeCacheData21getAbsoluteUnitStringEi17UDateAbsoluteUnit14UDateDirection.exit, label %30

30:                                               ; preds = %24
  %31 = getelementptr inbounds [3 x i32], ptr %23, i64 0, i64 %25
  %32 = load i32, ptr %31, align 4, !tbaa !12
  %.not12.i = icmp eq i32 %32, -1
  br i1 %.not12.i, label %33, label %24, !llvm.loop !33

33:                                               ; preds = %30
  %34 = getelementptr inbounds nuw i8, ptr %17, i64 23064
  br label %_ZNK6icu_7725RelativeDateTimeCacheData21getAbsoluteUnitStringEi17UDateAbsoluteUnit14UDateDirection.exit

_ZNK6icu_7725RelativeDateTimeCacheData21getAbsoluteUnitStringEi17UDateAbsoluteUnit14UDateDirection.exit: ; preds = %24, %33
  %.010.i = phi ptr [ %34, %33 ], [ %26, %24 ]
  %35 = getelementptr inbounds nuw i8, ptr %3, i64 140
  %36 = load i32, ptr %35, align 4, !tbaa !96
  %37 = tail call noundef i32 @_ZN6icu_7722FormattedStringBuilder6insertEiRKNS_13UnicodeStringENS0_5FieldER10UErrorCode(ptr noundef nonnull align 8 dereferenceable(136) %15, i32 noundef %36, ptr noundef nonnull align 8 dereferenceable(64) %.010.i, i8 64, ptr noundef nonnull align 4 dereferenceable(4) %4)
  br label %38

38:                                               ; preds = %5, %_ZNK6icu_7725RelativeDateTimeCacheData21getAbsoluteUnitStringEi17UDateAbsoluteUnit14UDateDirection.exit, %13
  ret void
}